Certificate:
    Data:
        Version: 3 (0x2)
        Serial Number: 1 (0x1)
        Signature Algorithm: sha1WithRSAEncryption
        Issuer: C=CN, ST=SiChuan, L=ChengDu, O=defineIOT Ltd, OU=Tec, CN=ca/emailAddress=yumaojun03@gmail.com
        Validity
            Not Before: Aug  8 01:28:09 2017 GMT
            Not After : Aug  6 01:28:09 2027 GMT
        Subject: C=CN, ST=SiChuan, O=defineIOT Ltd, OU=Tec, CN=server1/emailAddress=yumaojun03@gmail.com
        Subject Public Key Info:
            Public Key Algorithm: rsaEncryption
            RSA Public Key: (2048 bit)
                Modulus (2048 bit):
                    00:ab:31:73:da:9c:28:47:67:02:80:b5:46:8b:7d:
                    c0:c6:e1:c8:fb:23:1f:15:bf:ab:12:19:4a:61:07:
                    6b:aa:e1:88:b7:59:45:82:ae:29:89:4b:c6:72:bb:
                    4e:4f:60:c1:4d:d3:0a:92:55:15:e1:d9:62:33:b9:
                    68:ae:58:f0:71:23:76:8a:dd:75:29:9b:3b:38:78:
                    4e:cc:c3:e0:88:f0:35:72:01:92:a0:37:b1:21:84:
                    a2:f7:88:ec:e4:22:38:09:01:f1:9f:c9:61:3a:2b:
                    50:a0:89:c8:de:2b:3a:a2:7e:a2:a6:45:1c:91:6f:
                    90:52:6e:2e:40:1d:d5:2b:ba:86:3a:24:2a:74:65:
                    f2:ca:f4:fe:a3:e1:2e:16:f3:a1:ef:b3:a6:1f:1a:
                    99:5c:fb:fa:c9:34:ec:f1:81:f8:5c:ca:cb:40:a7:
                    20:f0:92:41:e9:76:c4:9b:46:ba:7a:5e:62:49:24:
                    e9:ea:63:27:a0:fd:a9:0b:2c:ed:b6:cc:64:62:d1:
                    da:fc:18:74:b4:1a:9e:9a:0b:44:57:ef:00:f5:d9:
                    b2:1e:3b:5d:8f:a6:02:c3:68:06:8b:68:b3:2a:57:
                    53:a7:7a:2e:c8:7b:68:f7:70:22:64:a9:2d:b8:96:
                    13:c7:df:f6:2b:fc:60:2b:28:84:5b:cc:b1:7f:9f:
                    87:9f
                Exponent: 65537 (0x10001)
        X509v3 extensions:
            X509v3 Basic Constraints: 
                CA:FALSE
            Netscape Comment: 
                OpenSSL Generated Certificate
            X509v3 Subject Key Identifier: 
                6D:0A:20:56:FC:04:7C:5C:49:FF:0F:D1:38:73:F2:7F:BD:9F:61:52
            X509v3 Authority Key Identifier: 
                keyid:3E:C8:4E:AD:74:1E:53:EF:0E:8C:B1:77:CB:06:40:B6:87:DD:D6:55

    Signature Algorithm: sha1WithRSAEncryption
        65:eb:ef:bb:36:55:ae:87:0f:c2:31:c5:2a:87:26:ba:a7:90:
        60:70:a1:07:84:7f:19:43:c3:ee:11:23:4a:90:59:0d:62:49:
        33:a9:6c:90:dd:a1:63:8a:74:9d:b2:36:89:c4:43:c2:6a:39:
        bf:7f:1e:f8:67:fa:96:21:25:76:ed:cb:9b:91:05:7f:27:11:
        df:12:09:78:76:a1:83:2f:a5:8f:3e:2a:8d:7f:5a:ab:b1:a4:
        a1:72:0f:e5:d3:0a:b4:ba:b7:ed:1b:e5:68:9c:62:55:5d:5f:
        c9:1e:d8:7b:db:75:74:fc:3c:db:27:e0:c2:61:de:f3:0e:16:
        f9:c7:a7:f0:0d:34:c5:55:54:4d:8b:3f:00:86:c1:1a:e4:ab:
        40:ff:2c:d6:45:a6:e8:a9:88:05:c6:74:f0:4b:d3:3f:a8:7d:
        8b:a3:ed:12:4c:c0:87:5c:df:d2:27:4b:33:87:e7:56:56:73:
        ab:24:09:74:ba:f0:1c:e1:0d:ce:81:92:8a:9b:15:54:15:b6:
        30:17:dc:c9:75:58:dc:4a:f0:1a:61:63:87:e8:c1:0e:d4:2c:
        29:23:c6:85:2b:01:7e:d5:48:e1:b8:64:49:d9:b7:9b:94:68:
        77:57:f6:d6:1e:ec:ce:af:ad:68:40:7a:08:82:d0:fc:31:5a:
        c0:97:5a:33
-----BEGIN CERTIFICATE-----
MIID/DCCAuSgAwIBAgIBATANBgkqhkiG9w0BAQUFADCBiTELMAkGA1UEBhMCQ04x
EDAOBgNVBAgTB1NpQ2h1YW4xEDAOBgNVBAcTB0NoZW5nRHUxFjAUBgNVBAoTDWRl
ZmluZUlPVCBMdGQxDDAKBgNVBAsTA1RlYzELMAkGA1UEAxMCY2ExIzAhBgkqhkiG
9w0BCQEWFHl1bWFvanVuMDNAZ21haWwuY29tMB4XDTE3MDgwODAxMjgwOVoXDTI3
MDgwNjAxMjgwOVowfDELMAkGA1UEBhMCQ04xEDAOBgNVBAgTB1NpQ2h1YW4xFjAU
BgNVBAoTDWRlZmluZUlPVCBMdGQxDDAKBgNVBAsTA1RlYzEQMA4GA1UEAxMHc2Vy
dmVyMTEjMCEGCSqGSIb3DQEJARYUeXVtYW9qdW4wM0BnbWFpbC5jb20wggEiMA0G
CSqGSIb3DQEBAQUAA4IBDwAwggEKAoIBAQCrMXPanChHZwKAtUaLfcDG4cj7Ix8V
v6sSGUphB2uq4Yi3WUWCrimJS8Zyu05PYMFN0wqSVRXh2WIzuWiuWPBxI3aK3XUp
mzs4eE7Mw+CI8DVyAZKgN7EhhKL3iOzkIjgJAfGfyWE6K1CgicjeKzqifqKmRRyR
b5BSbi5AHdUruoY6JCp0ZfLK9P6j4S4W86Hvs6YfGplc+/rJNOzxgfhcystApyDw
kkHpdsSbRrp6XmJJJOnqYyeg/akLLO22zGRi0dr8GHS0Gp6aC0RX7wD12bIeO12P
pgLDaAaLaLMqV1Onei7Ie2j3cCJkqS24lhPH3/Yr/GArKIRbzLF/n4efAgMBAAGj
ezB5MAkGA1UdEwQCMAAwLAYJYIZIAYb4QgENBB8WHU9wZW5TU0wgR2VuZXJhdGVk
IENlcnRpZmljYXRlMB0GA1UdDgQWBBRtCiBW/AR8XEn/D9E4c/J/vZ9hUjAfBgNV
HSMEGDAWgBQ+yE6tdB5T7w6MsXfLBkC2h93WVTANBgkqhkiG9w0BAQUFAAOCAQEA
ZevvuzZVrocPwjHFKocmuqeQYHChB4R/GUPD7hEjSpBZDWJJM6lskN2hY4p0nbI2
icRDwmo5v38e+Gf6liEldu3Lm5EFfycR3xIJeHahgy+ljz4qjX9aq7GkoXIP5dMK
tLq37RvlaJxiVV1fyR7Ye9t1dPw82yfgwmHe8w4W+cen8A00xVVUTYs/AIbBGuSr
QP8s1kWm6KmIBcZ08EvTP6h9i6PtEkzAh1zf0idLM4fnVlZzqyQJdLrwHOENzoGS
ipsVVBW2MBfcyXVY3ErwGmFjh+jBDtQsKSPGhSsBftVI4bhkSdm3m5Rod1f21h7s
zq+taEB6CILQ/DFawJdaMw==
-----END CERTIFICATE-----
